target datalayout = "e-m:e-p270:32:32-p271:32:32-p272:64:64-i64:64-i128:128-f80:128-n8:16:32:64-S128"
target triple = "x86_64-pc-linux-gnu"

%struct.ossl_store_loader_ctx_st = type { ptr, ptr, i32, i32 }

@.str.2 = private unnamed_addr constant [36 x i8] c"../openssl/apps/lib/engine_loader.c\00", align 1

; Function Attrs: nounwind uwtable
define internal void @OSSL_STORE_LOADER_CTX_free(ptr noundef %0) #0 {
  %2 = alloca ptr, align 8
  store ptr %0, ptr %2, align 8, !tbaa !15
  %3 = load ptr, ptr %2, align 8, !tbaa !15
  %4 = icmp ne ptr %3, null
  br i1 %4, label %5, label %14

5:                                                ; preds = %1
  %6 = load ptr, ptr %2, align 8, !tbaa !15
  %7 = getelementptr inbounds nuw %struct.ossl_store_loader_ctx_st, ptr %6, i32 0, i32 0
  %8 = load ptr, ptr %7, align 8, !tbaa !29
  %9 = call i32 @ENGINE_free(ptr noundef %8)
  %10 = load ptr, ptr %2, align 8, !tbaa !15
  %11 = getelementptr inbounds nuw %struct.ossl_store_loader_ctx_st, ptr %10, i32 0, i32 1
  %12 = load ptr, ptr %11, align 8, !tbaa !30
  call void @CRYPTO_free(ptr noundef %12, ptr noundef @.str.2, i32 noundef 60)
  %13 = load ptr, ptr %2, align 8, !tbaa !15
  call void @CRYPTO_free(ptr noundef %13, ptr noundef @.str.2, i32 noundef 61)
  br label %14

14:                                               ; preds = %5, %1
  ret void
}

; Function Attrs: nounwind uwtable
define internal i32 @engine_close(ptr noundef %0) #0 {
  %2 = alloca ptr, align 8
  store ptr %0, ptr %2, align 8, !tbaa !15
  %3 = load ptr, ptr %2, align 8, !tbaa !15
  call void @OSSL_STORE_LOADER_CTX_free(ptr noundef %3)
  ret i32 1
}