; Function Attrs: nounwind uwtable
define internal noundef i32 @engine_close(ptr noundef %0) #0 {
  %.not.i = icmp eq ptr %0, null
  br i1 %.not.i, label %OSSL_STORE_LOADER_CTX_free.exit, label %2

2:                                                ; preds = %1
  %3 = load ptr, ptr %0, align 8, !tbaa !6
  %4 = tail call i32 @ENGINE_free(ptr noundef %3) #8
  %5 = getelementptr inbounds nuw i8, ptr %0, i64 8
  %6 = load ptr, ptr %5, align 8, !tbaa !12
  tail call void @CRYPTO_free(ptr noundef %6, ptr noundef nonnull @.str.2, i32 noundef 60) #8
  tail call void @CRYPTO_free(ptr noundef nonnull %0, ptr noundef nonnull @.str.2, i32 noundef 61) #8
  br label %OSSL_STORE_LOADER_CTX_free.exit

OSSL_STORE_LOADER_CTX_free.exit:                  ; preds = %1, %2
  ret i32 1
}